; Function Attrs: mustprogress uwtable
define dso_local noundef ptr @_ZN13Probabilities15get_prob_filterE8ProbName(i32 noundef %0) local_unnamed_addr #3 align 2 {
  %2 = alloca i32, align 4
  store i32 %0, ptr %2, align 4
  %3 = tail call noundef ptr @_ZN13Probabilities11GetInstanceEv()
  %4 = getelementptr inbounds i8, ptr %3, i64 192
  %5 = call noundef nonnull align 8 dereferenceable(8) ptr @_ZNSt3mapI8ProbNameP6FilterSt4lessIS0_ESaISt4pairIKS0_S2_EEEixERS6_(ptr noundef nonnull align 8 dereferenceable(48) %4, ptr noundef nonnull align 4 dereferenceable(4) %2)
  %6 = load ptr, ptr %5, align 8
  %.not = icmp eq ptr %6, null
  br i1 %.not, label %7, label %11

7:                                                ; preds = %1
  %8 = getelementptr inbounds i8, ptr %3, i64 240
  %9 = call noundef nonnull align 8 dereferenceable(8) ptr @_ZNSt3mapI8ProbNameP6FilterSt4lessIS0_ESaISt4pairIKS0_S2_EEEixERS6_(ptr noundef nonnull align 8 dereferenceable(48) %8, ptr noundef nonnull align 4 dereferenceable(4) %2)
  %10 = load ptr, ptr %9, align 8
  br label %11

11:                                               ; preds = %7, %1
  %.0 = phi ptr [ %6, %1 ], [ %10, %7 ]
  ret ptr %.0
}